target datalayout = "e-m:e-p270:32:32-p271:32:32-p272:64:64-i64:64-i128:128-f80:128-n8:16:32:64-S128"
target triple = "x86_64-pc-linux-gnu"

%struct.pxr_nc_1_0_ColorSpace = type { %struct.pxr_nc_1_0_ColorSpaceDescriptor, float, float, %struct.pxr_nc_1_0_M33f }
%struct.pxr_nc_1_0_ColorSpaceDescriptor = type { ptr, %struct.pxr_nc_1_0_Chromaticity, %struct.pxr_nc_1_0_Chromaticity, %struct.pxr_nc_1_0_Chromaticity, %struct.pxr_nc_1_0_Chromaticity, float, float }
%struct.pxr_nc_1_0_Chromaticity = type { float, float }
%struct.pxr_nc_1_0_M33f = type { [9 x float] }

; Function Attrs: nounwind uwtable
define ptr @pxr_nc_1_0_GetNamedColorSpace(ptr noundef %0) #0 {
  %2 = alloca ptr, align 8
  %3 = alloca ptr, align 8
  %4 = alloca i64, align 8
  store ptr %0, ptr %3, align 8
  %5 = load ptr, ptr %3, align 8
  %6 = icmp ne ptr %5, null
  br i1 %6, label %7, label %30

7:                                                ; preds = %1
  store i64 0, ptr %4, align 8
  br label %8

8:                                                ; preds = %26, %7
  %9 = load i64, ptr %4, align 8
  %10 = icmp ult i64 %9, 18
  br i1 %10, label %11, label %29

11:                                               ; preds = %8
  %12 = load ptr, ptr %3, align 8
  %13 = load i64, ptr %4, align 8
  %14 = getelementptr inbounds [18 x %struct.pxr_nc_1_0_ColorSpace], ptr @_colorSpaces, i64 0, i64 %13
  %15 = getelementptr inbounds nuw %struct.pxr_nc_1_0_ColorSpace, ptr %14, i32 0, i32 0
  %16 = getelementptr inbounds nuw %struct.pxr_nc_1_0_ColorSpaceDescriptor, ptr %15, i32 0, i32 0
  %17 = load ptr, ptr %16, align 16
  %18 = call i32 @strcmp(ptr noundef %12, ptr noundef %17) #7
  %19 = icmp eq i32 %18, 0
  br i1 %19, label %20, label %25

20:                                               ; preds = %11
  %21 = load i64, ptr %4, align 8
  %22 = getelementptr inbounds [18 x %struct.pxr_nc_1_0_ColorSpace], ptr @_colorSpaces, i64 0, i64 %21
  call void @_NcInitColorSpace(ptr noundef %22)
  %23 = load i64, ptr %4, align 8
  %24 = getelementptr inbounds [18 x %struct.pxr_nc_1_0_ColorSpace], ptr @_colorSpaces, i64 0, i64 %23
  store ptr %24, ptr %2, align 8
  br label %31

25:                                               ; preds = %11
  br label %26

26:                                               ; preds = %25
  %27 = load i64, ptr %4, align 8
  %28 = add i64 %27, 1
  store i64 %28, ptr %4, align 8
  br label %8, !llvm.loop !14

29:                                               ; preds = %8
  br label %30

30:                                               ; preds = %29, %1
  store ptr null, ptr %2, align 8
  br label %31

31:                                               ; preds = %30, %20
  %32 = load ptr, ptr %2, align 8
  ret ptr %32
}