; Function Attrs: nofree nounwind memory(readwrite, inaccessiblemem: write) uwtable
define noundef ptr @pxr_nc_1_0_GetNamedColorSpace(ptr noundef readonly %0) local_unnamed_addr #18 {
  %.not = icmp eq ptr %0, null
  br i1 %.not, label %.loopexit, label %.preheader

2:                                                ; preds = %.preheader
  %3 = add nuw nsw i64 %.09, 1
  %exitcond.not = icmp eq i64 %3, 18
  br i1 %exitcond.not, label %.loopexit, label %.preheader, !llvm.loop !41

.preheader:                                       ; preds = %1, %2
  %.09 = phi i64 [ %3, %2 ], [ 0, %1 ]
  %4 = getelementptr inbounds [18 x %struct.pxr_nc_1_0_ColorSpace], ptr @_colorSpaces, i64 0, i64 %.09
  %5 = load ptr, ptr %4, align 16
  %6 = tail call i32 @strcmp(ptr noundef nonnull dereferenceable(1) %0, ptr noundef nonnull dereferenceable(1) %5) #21
  %7 = icmp eq i32 %6, 0
  br i1 %7, label %8, label %2

8:                                                ; preds = %.preheader
  tail call fastcc void @_NcInitColorSpace(ptr noundef nonnull %4)
  br label %.loopexit

.loopexit:                                        ; preds = %2, %1, %8
  %.07 = phi ptr [ %4, %8 ], [ null, %1 ], [ null, %2 ]
  ret ptr %.07
}